; ModuleID = '35/419.c'
source_filename = "35/419.c"
target datalayout = "e-m:e-p270:32:32-p271:32:32-p272:64:64-i64:64-f80:128-n8:16:32:64-S128"
target triple = "x86_64-pc-linux-gnu"

@.str = private unnamed_addr constant [6 x i8] c"%d,%d\00", align 1
@.str.1 = private unnamed_addr constant [3 x i8] c"%d\00", align 1
@.str.2 = private unnamed_addr constant [6 x i8] c"%d+%d\00", align 1
@.str.3 = private unnamed_addr constant [3 x i8] c"No\00", align 1

; Function Attrs: noinline nounwind uwtable
define dso_local i32 @main() #0 {
  %1 = alloca i32, align 4
  %2 = alloca i32, align 4
  %3 = alloca i32, align 4
  %4 = alloca [8 x [8 x i32]], align 16
  %5 = alloca i32, align 4
  %6 = alloca i32, align 4
  %7 = alloca i32, align 4
  %8 = alloca i32, align 4
  %9 = alloca i32, align 4
  %10 = alloca i32, align 4
  %11 = alloca i32, align 4
  %12 = alloca i32, align 4
  store i32 0, i32* %1, align 4
  store i32 0, i32* %10, align 4
  %13 = call i32 (i8*, ...) @__isoc99_scanf(i8* getelementptr inbounds ([6 x i8], [6 x i8]* @.str, i64 0, i64 0), i32* %2, i32* %3)
  store i32 0, i32* %5, align 4
  br label %14

14:                                               ; preds = %35, %0
  %15 = load i32, i32* %5, align 4
  %16 = load i32, i32* %2, align 4
  %17 = icmp slt i32 %15, %16
  br i1 %17, label %18, label %38

18:                                               ; preds = %14
  store i32 0, i32* %6, align 4
  br label %19

19:                                               ; preds = %31, %18
  %20 = load i32, i32* %6, align 4
  %21 = load i32, i32* %3, align 4
  %22 = icmp slt i32 %20, %21
  br i1 %22, label %23, label %34

23:                                               ; preds = %19
  %24 = load i32, i32* %5, align 4
  %25 = sext i32 %24 to i64
  %26 = getelementptr inbounds [8 x [8 x i32]], [8 x [8 x i32]]* %4, i64 0, i64 %25
  %27 = load i32, i32* %6, align 4
  %28 = sext i32 %27 to i64
  %29 = getelementptr inbounds [8 x i32], [8 x i32]* %26, i64 0, i64 %28
  %30 = call i32 (i8*, ...) @__isoc99_scanf(i8* getelementptr inbounds ([3 x i8], [3 x i8]* @.str.1, i64 0, i64 0), i32* %29)
  br label %31

31:                                               ; preds = %23
  %32 = load i32, i32* %6, align 4
  %33 = add nsw i32 %32, 1
  store i32 %33, i32* %6, align 4
  br label %19

34:                                               ; preds = %19
  br label %35

35:                                               ; preds = %34
  %36 = load i32, i32* %5, align 4
  %37 = add nsw i32 %36, 1
  store i32 %37, i32* %5, align 4
  br label %14

38:                                               ; preds = %14
  store i32 0, i32* %5, align 4
  br label %39

39:                                               ; preds = %110, %38
  %40 = load i32, i32* %5, align 4
  %41 = load i32, i32* %2, align 4
  %42 = icmp slt i32 %40, %41
  br i1 %42, label %43, label %113

43:                                               ; preds = %39
  %44 = load i32, i32* %5, align 4
  %45 = sext i32 %44 to i64
  %46 = getelementptr inbounds [8 x [8 x i32]], [8 x [8 x i32]]* %4, i64 0, i64 %45
  %47 = getelementptr inbounds [8 x i32], [8 x i32]* %46, i64 0, i64 0
  %48 = load i32, i32* %47, align 16
  store i32 %48, i32* %7, align 4
  store i32 0, i32* %9, align 4
  store i32 1, i32* %6, align 4
  br label %49

49:                                               ; preds = %73, %43
  %50 = load i32, i32* %6, align 4
  %51 = load i32, i32* %3, align 4
  %52 = icmp slt i32 %50, %51
  br i1 %52, label %53, label %76

53:                                               ; preds = %49
  %54 = load i32, i32* %5, align 4
  %55 = sext i32 %54 to i64
  %56 = getelementptr inbounds [8 x [8 x i32]], [8 x [8 x i32]]* %4, i64 0, i64 %55
  %57 = load i32, i32* %6, align 4
  %58 = sext i32 %57 to i64
  %59 = getelementptr inbounds [8 x i32], [8 x i32]* %56, i64 0, i64 %58
  %60 = load i32, i32* %59, align 4
  %61 = load i32, i32* %7, align 4
  %62 = icmp sgt i32 %60, %61
  br i1 %62, label %63, label %72

63:                                               ; preds = %53
  %64 = load i32, i32* %5, align 4
  %65 = sext i32 %64 to i64
  %66 = getelementptr inbounds [8 x [8 x i32]], [8 x [8 x i32]]* %4, i64 0, i64 %65
  %67 = load i32, i32* %6, align 4
  %68 = sext i32 %67 to i64
  %69 = getelementptr inbounds [8 x i32], [8 x i32]* %66, i64 0, i64 %68
  %70 = load i32, i32* %69, align 4
  store i32 %70, i32* %7, align 4
  %71 = load i32, i32* %6, align 4
  store i32 %71, i32* %9, align 4
  br label %72

72:                                               ; preds = %63, %53
  br label %73

73:                                               ; preds = %72
  %74 = load i32, i32* %6, align 4
  %75 = add nsw i32 %74, 1
  store i32 %75, i32* %6, align 4
  br label %49

76:                                               ; preds = %49
  store i32 0, i32* %12, align 4
  store i32 0, i32* %11, align 4
  br label %77

77:                                               ; preds = %96, %76
  %78 = load i32, i32* %11, align 4
  %79 = load i32, i32* %2, align 4
  %80 = icmp slt i32 %78, %79
  br i1 %80, label %81, label %99

81:                                               ; preds = %77
  %82 = load i32, i32* %7, align 4
  store i32 %82, i32* %8, align 4
  %83 = load i32, i32* %11, align 4
  %84 = sext i32 %83 to i64
  %85 = getelementptr inbounds [8 x [8 x i32]], [8 x [8 x i32]]* %4, i64 0, i64 %84
  %86 = load i32, i32* %9, align 4
  %87 = sext i32 %86 to i64
  %88 = getelementptr inbounds [8 x i32], [8 x i32]* %85, i64 0, i64 %87
  %89 = load i32, i32* %88, align 4
  %90 = load i32, i32* %8, align 4
  %91 = icmp slt i32 %89, %90
  br i1 %91, label %92, label %95

92:                                               ; preds = %81
  %93 = load i32, i32* %12, align 4
  %94 = add nsw i32 %93, 1
  store i32 %94, i32* %12, align 4
  br label %95

95:                                               ; preds = %92, %81
  br label %96

96:                                               ; preds = %95
  %97 = load i32, i32* %11, align 4
  %98 = add nsw i32 %97, 1
  store i32 %98, i32* %11, align 4
  br label %77

99:                                               ; preds = %77
  %100 = load i32, i32* %12, align 4
  %101 = icmp eq i32 %100, 0
  br i1 %101, label %102, label %106

102:                                              ; preds = %99
  %103 = load i32, i32* %5, align 4
  %104 = load i32, i32* %9, align 4
  %105 = call i32 (i8*, ...) @printf(i8* getelementptr inbounds ([6 x i8], [6 x i8]* @.str.2, i64 0, i64 0), i32 %103, i32 %104)
  br label %109

106:                                              ; preds = %99
  %107 = load i32, i32* %10, align 4
  %108 = add nsw i32 %107, 1
  store i32 %108, i32* %10, align 4
  br label %109

109:                                              ; preds = %106, %102
  br label %110

110:                                              ; preds = %109
  %111 = load i32, i32* %5, align 4
  %112 = add nsw i32 %111, 1
  store i32 %112, i32* %5, align 4
  br label %39

113:                                              ; preds = %39
  %114 = load i32, i32* %10, align 4
  %115 = load i32, i32* %2, align 4
  %116 = icmp eq i32 %114, %115
  br i1 %116, label %117, label %119

117:                                              ; preds = %113
  %118 = call i32 (i8*, ...) @printf(i8* getelementptr inbounds ([3 x i8], [3 x i8]* @.str.3, i64 0, i64 0))
  br label %119

119:                                              ; preds = %117, %113
  ret i32 0
}

declare dso_local i32 @__isoc99_scanf(i8*, ...) #1

declare dso_local i32 @printf(i8*, ...) #1


!llvm.module.flags = !{!0}
!llvm.ident = !{!1}

!0 = !{i32 1, !"wchar_size", i32 4}
!1 = !{!"clang version 10.0.0-4ubuntu1 "}
